target datalayout = "e-m:e-p270:32:32-p271:32:32-p272:64:64-i64:64-i128:128-f80:128-n8:16:32:64-S128"
target triple = "x86_64-pc-linux-gnu"

%struct.hb_segment_properties_t = type { i32, i32, ptr, ptr, ptr }
%struct.hb_ot_shape_planner_t = type { ptr, %struct.hb_segment_properties_t, %struct.hb_ot_map_builder_t, i8, ptr }
%struct.hb_ot_map_builder_t = type { ptr, %struct.hb_segment_properties_t, i8, [2 x i32], [2 x i8], [2 x i32], [2 x i32], [2 x i32], %struct.hb_vector_t.11, [2 x %struct.hb_vector_t.12] }
%struct.hb_vector_t.11 = type { i32, i32, ptr }
%struct.hb_vector_t.12 = type { i32, i32, ptr }

@_ZL15arabic_features = internal constant [8 x i32] [i32 1769172844, i32 1718185569, i32 1718185522, i32 1718185523, i32 1835361385, i32 1835361330, i32 1768843636, i32 0], align 16

; Function Attrs: mustprogress nounwind uwtable
define internal noundef i32 @_Zor25hb_ot_map_feature_flags_tS_(i32 noundef %0, i32 noundef %1) #2 {
  %3 = alloca i32, align 4
  %4 = alloca i32, align 4
  store i32 %0, ptr %3, align 4
  store i32 %1, ptr %4, align 4
  %5 = load i32, ptr %3, align 4
  %6 = load i32, ptr %4, align 4
  %7 = or i32 %5, %6
  ret i32 %7
}

; Function Attrs: mustprogress nounwind uwtable
define internal noundef zeroext i1 @_ZL11hb_in_rangeIhEbT_S0_S0_(i8 noundef zeroext %0, i8 noundef zeroext %1, i8 noundef zeroext %2) #2 {
  %4 = alloca i8, align 1
  %5 = alloca i8, align 1
  %6 = alloca i8, align 1
  store i8 %0, ptr %4, align 1
  store i8 %1, ptr %5, align 1
  store i8 %2, ptr %6, align 1
  %7 = load i8, ptr %4, align 1
  %8 = zext i8 %7 to i32
  %9 = load i8, ptr %5, align 1
  %10 = zext i8 %9 to i32
  %11 = sub nsw i32 %8, %10
  %12 = trunc i32 %11 to i8
  %13 = zext i8 %12 to i32
  %14 = load i8, ptr %6, align 1
  %15 = zext i8 %14 to i32
  %16 = load i8, ptr %5, align 1
  %17 = zext i8 %16 to i32
  %18 = sub nsw i32 %15, %17
  %19 = trunc i32 %18 to i8
  %20 = zext i8 %19 to i32
  %21 = icmp sle i32 %13, %20
  ret i1 %21
}

; Function Attrs: mustprogress uwtable
define linkonce_odr hidden void @_ZN19hb_ot_map_builder_t14add_gsub_pauseEPFbPK18hb_ot_shape_plan_tP9hb_font_tP11hb_buffer_tE(ptr noundef nonnull align 8 dereferenceable(128) %0, ptr noundef %1) #0 comdat align 2 {
  %3 = alloca ptr, align 8
  %4 = alloca ptr, align 8
  store ptr %0, ptr %3, align 8
  store ptr %1, ptr %4, align 8
  %5 = load ptr, ptr %3, align 8
  %6 = load ptr, ptr %4, align 8
  call void @_ZN19hb_ot_map_builder_t9add_pauseEjPFbPK18hb_ot_shape_plan_tP9hb_font_tP11hb_buffer_tE(ptr noundef nonnull align 8 dereferenceable(128) %5, i32 noundef 0, ptr noundef %6)
  ret void
}

; Function Attrs: mustprogress uwtable
define linkonce_odr hidden void @_ZN19hb_ot_map_builder_t14enable_featureEj25hb_ot_map_feature_flags_tj(ptr noundef nonnull align 8 dereferenceable(128) %0, i32 noundef %1, i32 noundef %2, i32 noundef %3) #0 comdat align 2 {
  %5 = alloca ptr, align 8
  %6 = alloca i32, align 4
  %7 = alloca i32, align 4
  %8 = alloca i32, align 4
  store ptr %0, ptr %5, align 8
  store i32 %1, ptr %6, align 4
  store i32 %2, ptr %7, align 4
  store i32 %3, ptr %8, align 4
  %9 = load ptr, ptr %5, align 8
  %10 = load i32, ptr %6, align 4
  %11 = load i32, ptr %7, align 4
  %12 = call noundef i32 @_Zor25hb_ot_map_feature_flags_tS_(i32 noundef 1, i32 noundef %11)
  %13 = load i32, ptr %8, align 4
  call void @_ZN19hb_ot_map_builder_t11add_featureEj25hb_ot_map_feature_flags_tj(ptr noundef nonnull align 8 dereferenceable(128) %9, i32 noundef %10, i32 noundef %12, i32 noundef %13)
  ret void
}

; Function Attrs: mustprogress uwtable
define internal void @_ZL23collect_features_arabicP21hb_ot_shape_planner_t(ptr noundef %0) #0 {
  %2 = alloca ptr, align 8
  %3 = alloca ptr, align 8
  %4 = alloca i32, align 4
  %5 = alloca i8, align 1
  store ptr %0, ptr %2, align 8
  %6 = load ptr, ptr %2, align 8
  %7 = getelementptr inbounds %struct.hb_ot_shape_planner_t, ptr %6, i32 0, i32 2
  store ptr %7, ptr %3, align 8
  %8 = load ptr, ptr %3, align 8
  call void @_ZN19hb_ot_map_builder_t14enable_featureEj25hb_ot_map_feature_flags_tj(ptr noundef nonnull align 8 dereferenceable(128) %8, i32 noundef 1937007464, i32 noundef 0, i32 noundef 1)
  %9 = load ptr, ptr %3, align 8
  call void @_ZN19hb_ot_map_builder_t14add_gsub_pauseEPFbPK18hb_ot_shape_plan_tP9hb_font_tP11hb_buffer_tE(ptr noundef nonnull align 8 dereferenceable(128) %9, ptr noundef @_ZL11record_stchPK18hb_ot_shape_plan_tP9hb_font_tP11hb_buffer_t)
  %10 = load ptr, ptr %3, align 8
  call void @_ZN19hb_ot_map_builder_t14enable_featureEj25hb_ot_map_feature_flags_tj(ptr noundef nonnull align 8 dereferenceable(128) %10, i32 noundef 1667460464, i32 noundef 8, i32 noundef 1)
  %11 = load ptr, ptr %3, align 8
  call void @_ZN19hb_ot_map_builder_t14enable_featureEj25hb_ot_map_feature_flags_tj(ptr noundef nonnull align 8 dereferenceable(128) %11, i32 noundef 1819239276, i32 noundef 8, i32 noundef 1)
  %12 = load ptr, ptr %3, align 8
  call void @_ZN19hb_ot_map_builder_t14add_gsub_pauseEPFbPK18hb_ot_shape_plan_tP9hb_font_tP11hb_buffer_tE(ptr noundef nonnull align 8 dereferenceable(128) %12, ptr noundef null)
  store i32 0, ptr %4, align 4
  br label %13

13:                                               ; preds = %43, %1
  %14 = load i32, ptr %4, align 4
  %15 = icmp ult i32 %14, 7
  br i1 %15, label %16, label %46

16:                                               ; preds = %13
  %17 = load ptr, ptr %2, align 8
  %18 = getelementptr inbounds %struct.hb_ot_shape_planner_t, ptr %17, i32 0, i32 1
  %19 = getelementptr inbounds %struct.hb_segment_properties_t, ptr %18, i32 0, i32 1
  %20 = load i32, ptr %19, align 4
  %21 = icmp eq i32 %20, 1098015074
  br i1 %21, label %22, label %30

22:                                               ; preds = %16
  %23 = load i32, ptr %4, align 4
  %24 = zext i32 %23 to i64
  %25 = getelementptr inbounds [8 x i32], ptr @_ZL15arabic_features, i64 0, i64 %24
  %26 = load i32, ptr %25, align 4
  %27 = trunc i32 %26 to i8
  %28 = call noundef zeroext i1 @_ZL11hb_in_rangeIhEbT_S0_S0_(i8 noundef zeroext %27, i8 noundef zeroext 50, i8 noundef zeroext 51)
  %29 = xor i1 %28, true
  br label %30

30:                                               ; preds = %22, %16
  %31 = phi i1 [ false, %16 ], [ %29, %22 ]
  %32 = zext i1 %31 to i8
  store i8 %32, ptr %5, align 1
  %33 = load ptr, ptr %3, align 8
  %34 = load i32, ptr %4, align 4
  %35 = zext i32 %34 to i64
  %36 = getelementptr inbounds [8 x i32], ptr @_ZL15arabic_features, i64 0, i64 %35
  %37 = load i32, ptr %36, align 4
  %38 = load i8, ptr %5, align 1
  %39 = trunc i8 %38 to i1
  %40 = select i1 %39, i32 2, i32 0
  %41 = call noundef i32 @_Zor25hb_ot_map_feature_flags_tS_(i32 noundef 8, i32 noundef %40)
  call void @_ZN19hb_ot_map_builder_t11add_featureEj25hb_ot_map_feature_flags_tj(ptr noundef nonnull align 8 dereferenceable(128) %33, i32 noundef %37, i32 noundef %41, i32 noundef 1)
  %42 = load ptr, ptr %3, align 8
  call void @_ZN19hb_ot_map_builder_t14add_gsub_pauseEPFbPK18hb_ot_shape_plan_tP9hb_font_tP11hb_buffer_tE(ptr noundef nonnull align 8 dereferenceable(128) %42, ptr noundef null)
  br label %43

43:                                               ; preds = %30
  %44 = load i32, ptr %4, align 4
  %45 = add i32 %44, 1
  store i32 %45, ptr %4, align 4
  br label %13, !llvm.loop !14

46:                                               ; preds = %13
  %47 = load ptr, ptr %3, align 8
  call void @_ZN19hb_ot_map_builder_t14add_gsub_pauseEPFbPK18hb_ot_shape_plan_tP9hb_font_tP11hb_buffer_tE(ptr noundef nonnull align 8 dereferenceable(128) %47, ptr noundef @_ZL21deallocate_buffer_varPK18hb_ot_shape_plan_tP9hb_font_tP11hb_buffer_t)
  %48 = load ptr, ptr %3, align 8
  %49 = call noundef i32 @_Zor25hb_ot_map_feature_flags_tS_(i32 noundef 8, i32 noundef 2)
  call void @_ZN19hb_ot_map_builder_t14enable_featureEj25hb_ot_map_feature_flags_tj(ptr noundef nonnull align 8 dereferenceable(128) %48, i32 noundef 1919707495, i32 noundef %49, i32 noundef 1)
  %50 = load ptr, ptr %2, align 8
  %51 = getelementptr inbounds %struct.hb_ot_shape_planner_t, ptr %50, i32 0, i32 1
  %52 = getelementptr inbounds %struct.hb_segment_properties_t, ptr %51, i32 0, i32 1
  %53 = load i32, ptr %52, align 4
  %54 = icmp eq i32 %53, 1098015074
  br i1 %54, label %55, label %57

55:                                               ; preds = %46
  %56 = load ptr, ptr %3, align 8
  call void @_ZN19hb_ot_map_builder_t14add_gsub_pauseEPFbPK18hb_ot_shape_plan_tP9hb_font_tP11hb_buffer_tE(ptr noundef nonnull align 8 dereferenceable(128) %56, ptr noundef @_ZL21arabic_fallback_shapePK18hb_ot_shape_plan_tP9hb_font_tP11hb_buffer_t)
  br label %57

57:                                               ; preds = %55, %46
  %58 = load ptr, ptr %3, align 8
  call void @_ZN19hb_ot_map_builder_t14enable_featureEj25hb_ot_map_feature_flags_tj(ptr noundef nonnull align 8 dereferenceable(128) %58, i32 noundef 1667329140, i32 noundef 8, i32 noundef 1)
  %59 = load ptr, ptr %3, align 8
  %60 = call noundef zeroext i1 @_ZN19hb_ot_map_builder_t11has_featureEj(ptr noundef nonnull align 8 dereferenceable(128) %59, i32 noundef 1919118452)
  br i1 %60, label %64, label %61

61:                                               ; preds = %57
  %62 = load ptr, ptr %3, align 8
  call void @_ZN19hb_ot_map_builder_t14add_gsub_pauseEPFbPK18hb_ot_shape_plan_tP9hb_font_tP11hb_buffer_tE(ptr noundef nonnull align 8 dereferenceable(128) %62, ptr noundef null)
  %63 = load ptr, ptr %3, align 8
  call void @_ZN19hb_ot_map_builder_t14enable_featureEj25hb_ot_map_feature_flags_tj(ptr noundef nonnull align 8 dereferenceable(128) %63, i32 noundef 1919118452, i32 noundef 8, i32 noundef 1)
  br label %64

64:                                               ; preds = %61, %57
  %65 = load ptr, ptr %3, align 8
  call void @_ZN19hb_ot_map_builder_t14enable_featureEj25hb_ot_map_feature_flags_tj(ptr noundef nonnull align 8 dereferenceable(128) %65, i32 noundef 1818847073, i32 noundef 8, i32 noundef 1)
  %66 = load ptr, ptr %3, align 8
  call void @_ZN19hb_ot_map_builder_t14enable_featureEj25hb_ot_map_feature_flags_tj(ptr noundef nonnull align 8 dereferenceable(128) %66, i32 noundef 1668049255, i32 noundef 8, i32 noundef 1)
  %67 = load ptr, ptr %3, align 8
  call void @_ZN19hb_ot_map_builder_t14enable_featureEj25hb_ot_map_feature_flags_tj(ptr noundef nonnull align 8 dereferenceable(128) %67, i32 noundef 1836279156, i32 noundef 8, i32 noundef 1)
  ret void
}