; Function Attrs: mustprogress uwtable
define internal void @_ZL23collect_features_arabicP21hb_ot_shape_planner_t(ptr noundef %0) #4 {
  %2 = getelementptr inbounds i8, ptr %0, i64 40
  tail call void @_ZN19hb_ot_map_builder_t11add_featureEj25hb_ot_map_feature_flags_tj(ptr noundef nonnull align 8 dereferenceable(128) %2, i32 noundef 1937007464, i32 noundef 1, i32 noundef 1)
  tail call void @_ZN19hb_ot_map_builder_t9add_pauseEjPFbPK18hb_ot_shape_plan_tP9hb_font_tP11hb_buffer_tE(ptr noundef nonnull align 8 dereferenceable(128) %2, i32 noundef 0, ptr noundef nonnull @_ZL11record_stchPK18hb_ot_shape_plan_tP9hb_font_tP11hb_buffer_t)
  tail call void @_ZN19hb_ot_map_builder_t11add_featureEj25hb_ot_map_feature_flags_tj(ptr noundef nonnull align 8 dereferenceable(128) %2, i32 noundef 1667460464, i32 noundef 9, i32 noundef 1)
  tail call void @_ZN19hb_ot_map_builder_t11add_featureEj25hb_ot_map_feature_flags_tj(ptr noundef nonnull align 8 dereferenceable(128) %2, i32 noundef 1819239276, i32 noundef 9, i32 noundef 1)
  tail call void @_ZN19hb_ot_map_builder_t9add_pauseEjPFbPK18hb_ot_shape_plan_tP9hb_font_tP11hb_buffer_tE(ptr noundef nonnull align 8 dereferenceable(128) %2, i32 noundef 0, ptr noundef null)
  %3 = getelementptr inbounds i8, ptr %0, i64 12
  br label %.thread

.thread:                                          ; preds = %1, %.thread
  %indvars.iv = phi i64 [ 0, %1 ], [ %indvars.iv.next, %.thread ]
  %4 = load i32, ptr %3, align 4
  %5 = icmp eq i32 %4, 1098015074
  %6 = lshr i64 44, %indvars.iv
  %.fr25 = freeze i64 %6
  %7 = trunc i64 %.fr25 to i32
  %8 = shl i32 %7, 1
  %9 = and i32 %8, 2
  %10 = xor i32 %9, 10
  %.in = getelementptr inbounds [8 x i32], ptr @_ZL15arabic_features, i64 0, i64 %indvars.iv
  %11 = load i32, ptr %.in, align 4
  %12 = select i1 %5, i32 %10, i32 8
  tail call void @_ZN19hb_ot_map_builder_t11add_featureEj25hb_ot_map_feature_flags_tj(ptr noundef nonnull align 8 dereferenceable(128) %2, i32 noundef %11, i32 noundef %12, i32 noundef 1)
  tail call void @_ZN19hb_ot_map_builder_t9add_pauseEjPFbPK18hb_ot_shape_plan_tP9hb_font_tP11hb_buffer_tE(ptr noundef nonnull align 8 dereferenceable(128) %2, i32 noundef 0, ptr noundef null)
  %indvars.iv.next = add nuw nsw i64 %indvars.iv, 1
  %exitcond.not = icmp eq i64 %indvars.iv.next, 7
  br i1 %exitcond.not, label %13, label %.thread, !llvm.loop !18

13:                                               ; preds = %.thread
  tail call void @_ZN19hb_ot_map_builder_t9add_pauseEjPFbPK18hb_ot_shape_plan_tP9hb_font_tP11hb_buffer_tE(ptr noundef nonnull align 8 dereferenceable(128) %2, i32 noundef 0, ptr noundef nonnull @_ZL21deallocate_buffer_varPK18hb_ot_shape_plan_tP9hb_font_tP11hb_buffer_t)
  tail call void @_ZN19hb_ot_map_builder_t11add_featureEj25hb_ot_map_feature_flags_tj(ptr noundef nonnull align 8 dereferenceable(128) %2, i32 noundef 1919707495, i32 noundef 11, i32 noundef 1)
  %14 = load i32, ptr %3, align 4
  %15 = icmp eq i32 %14, 1098015074
  br i1 %15, label %16, label %17

16:                                               ; preds = %13
  tail call void @_ZN19hb_ot_map_builder_t9add_pauseEjPFbPK18hb_ot_shape_plan_tP9hb_font_tP11hb_buffer_tE(ptr noundef nonnull align 8 dereferenceable(128) %2, i32 noundef 0, ptr noundef nonnull @_ZL21arabic_fallback_shapePK18hb_ot_shape_plan_tP9hb_font_tP11hb_buffer_t)
  br label %17

17:                                               ; preds = %16, %13
  tail call void @_ZN19hb_ot_map_builder_t11add_featureEj25hb_ot_map_feature_flags_tj(ptr noundef nonnull align 8 dereferenceable(128) %2, i32 noundef 1667329140, i32 noundef 9, i32 noundef 1)
  %18 = tail call noundef zeroext i1 @_ZN19hb_ot_map_builder_t11has_featureEj(ptr noundef nonnull align 8 dereferenceable(128) %2, i32 noundef 1919118452)
  br i1 %18, label %20, label %19

19:                                               ; preds = %17
  tail call void @_ZN19hb_ot_map_builder_t9add_pauseEjPFbPK18hb_ot_shape_plan_tP9hb_font_tP11hb_buffer_tE(ptr noundef nonnull align 8 dereferenceable(128) %2, i32 noundef 0, ptr noundef null)
  tail call void @_ZN19hb_ot_map_builder_t11add_featureEj25hb_ot_map_feature_flags_tj(ptr noundef nonnull align 8 dereferenceable(128) %2, i32 noundef 1919118452, i32 noundef 9, i32 noundef 1)
  br label %20

20:                                               ; preds = %19, %17
  tail call void @_ZN19hb_ot_map_builder_t11add_featureEj25hb_ot_map_feature_flags_tj(ptr noundef nonnull align 8 dereferenceable(128) %2, i32 noundef 1818847073, i32 noundef 9, i32 noundef 1)
  tail call void @_ZN19hb_ot_map_builder_t11add_featureEj25hb_ot_map_feature_flags_tj(ptr noundef nonnull align 8 dereferenceable(128) %2, i32 noundef 1668049255, i32 noundef 9, i32 noundef 1)
  tail call void @_ZN19hb_ot_map_builder_t11add_featureEj25hb_ot_map_feature_flags_tj(ptr noundef nonnull align 8 dereferenceable(128) %2, i32 noundef 1836279156, i32 noundef 9, i32 noundef 1)
  ret void
}